; Function Attrs: nounwind uwtable
define noundef i32 @cli_map_removekey(ptr nocapture noundef readonly %0, ptr noundef readonly %1, i32 noundef %2) local_unnamed_addr #0 {
  %4 = getelementptr inbounds i8, ptr %0, i64 44
  %5 = load i32, ptr %4, align 4
  %.not = icmp eq i32 %5, %2
  br i1 %.not, label %6, label %cli_hashtab_delete.exit

6:                                                ; preds = %3
  %7 = sext i32 %2 to i64
  %8 = getelementptr inbounds i8, ptr %0, i64 8
  %9 = load i64, ptr %8, align 8
  %.not.i.i = icmp eq i32 %2, 0
  br i1 %.not.i.i, label %hash.exit.i, label %.lr.ph.i.i

.lr.ph.i.i:                                       ; preds = %6, %.lr.ph.i.i
  %.010.i.i = phi i64 [ %25, %.lr.ph.i.i ], [ 0, %6 ]
  %.089.i.i = phi i32 [ %24, %.lr.ph.i.i ], [ 1, %6 ]
  %10 = getelementptr inbounds i8, ptr %1, i64 %.010.i.i
  %11 = load i8, ptr %10, align 1
  %12 = zext i8 %11 to i32
  %13 = add i32 %.089.i.i, %12
  %14 = xor i32 %13, -1
  %15 = shl i32 %13, 15
  %16 = add i32 %15, %14
  %17 = lshr i32 %16, 12
  %18 = xor i32 %17, %16
  %19 = mul i32 %18, 5
  %20 = lshr i32 %19, 4
  %21 = xor i32 %20, %19
  %22 = mul i32 %21, 2057
  %23 = lshr i32 %22, 16
  %24 = xor i32 %23, %22
  %25 = add nuw i64 %.010.i.i, 1
  %exitcond.not.i.i = icmp eq i64 %25, %7
  br i1 %exitcond.not.i.i, label %._crit_edge.loopexit.i.i, label %.lr.ph.i.i

._crit_edge.loopexit.i.i:                         ; preds = %.lr.ph.i.i
  %26 = zext i32 %24 to i64
  br label %hash.exit.i

hash.exit.i:                                      ; preds = %._crit_edge.loopexit.i.i, %6
  %.08.lcssa.i.i = phi i64 [ 1, %6 ], [ %26, %._crit_edge.loopexit.i.i ]
  %27 = add i64 %9, -1
  %28 = load ptr, ptr %0, align 8
  br label %29

29:                                               ; preds = %41, %hash.exit.i
  %.023.i = phi i64 [ 1, %hash.exit.i ], [ %42, %41 ]
  %.08.lcssa.i.pn.i = phi i64 [ %.08.lcssa.i.i, %hash.exit.i ], [ %43, %41 ]
  %.0.i = and i64 %.08.lcssa.i.pn.i, %27
  %.024.i = getelementptr inbounds %struct.cli_element, ptr %28, i64 %.0.i
  %30 = load ptr, ptr %.024.i, align 8
  %.not31.i = icmp eq ptr %30, null
  br i1 %.not31.i, label %cli_hashtab_delete.exit, label %31

31:                                               ; preds = %29
  %.not32.i = icmp eq ptr %30, @DELETED_KEY
  br i1 %.not32.i, label %41, label %32

32:                                               ; preds = %31
  %33 = getelementptr inbounds i8, ptr %.024.i, i64 16
  %34 = load i64, ptr %33, align 8
  %35 = icmp eq i64 %34, %7
  br i1 %35, label %36, label %41

36:                                               ; preds = %32
  %37 = icmp eq ptr %30, %1
  br i1 %37, label %cli_hashtab_find.exit, label %38

38:                                               ; preds = %36
  %39 = tail call i32 @strncmp(ptr noundef %1, ptr noundef nonnull %30, i64 noundef %7) #19
  %40 = icmp eq i32 %39, 0
  br i1 %40, label %cli_hashtab_find.exit, label %41

41:                                               ; preds = %38, %32, %31
  %42 = add i64 %.023.i, 1
  %43 = add i64 %.0.i, %.023.i
  %.not33.i = icmp ugt i64 %42, %9
  br i1 %.not33.i, label %cli_hashtab_delete.exit, label %29

cli_hashtab_find.exit:                            ; preds = %38, %36
  %44 = getelementptr inbounds i8, ptr %.024.i, i64 8
  %45 = load i64, ptr %44, align 8
  %46 = trunc i64 %45 to i32
  %47 = getelementptr inbounds i8, ptr %0, i64 40
  %48 = load i32, ptr %47, align 8
  %.not28 = icmp sle i32 %48, %46
  %49 = icmp slt i32 %46, 0
  %or.cond = or i1 %.not28, %49
  br i1 %or.cond, label %cli_hashtab_delete.exit, label %50

50:                                               ; preds = %cli_hashtab_find.exit
  %51 = getelementptr inbounds i8, ptr %0, i64 48
  %52 = load i32, ptr %51, align 8
  %.not29 = icmp eq i32 %52, 0
  %53 = getelementptr inbounds i8, ptr %0, i64 32
  %54 = load ptr, ptr %53, align 8
  br i1 %.not29, label %55, label %60

55:                                               ; preds = %50
  %56 = and i64 %45, 2147483647
  %57 = getelementptr inbounds %struct.cli_map_value, ptr %54, i64 %56
  %58 = load ptr, ptr %57, align 8
  tail call void @free(ptr noundef %58) #18
  store ptr null, ptr %57, align 8
  %59 = getelementptr inbounds i8, ptr %57, i64 8
  store i32 0, ptr %59, align 8
  br label %65

60:                                               ; preds = %50
  %61 = mul nsw i32 %52, %46
  %62 = sext i32 %61 to i64
  %63 = getelementptr inbounds i8, ptr %54, i64 %62
  %64 = sext i32 %52 to i64
  tail call void @llvm.memset.p0.i64(ptr align 1 %63, i8 0, i64 %64, i1 false)
  br label %65

65:                                               ; preds = %55, %60
  %66 = load i64, ptr %8, align 8
  br i1 %.not.i.i, label %hash.exit.i.i, label %.lr.ph.i.i.i

.lr.ph.i.i.i:                                     ; preds = %65, %.lr.ph.i.i.i
  %.010.i.i.i = phi i64 [ %82, %.lr.ph.i.i.i ], [ 0, %65 ]
  %.089.i.i.i = phi i32 [ %81, %.lr.ph.i.i.i ], [ 1, %65 ]
  %67 = getelementptr inbounds i8, ptr %1, i64 %.010.i.i.i
  %68 = load i8, ptr %67, align 1
  %69 = zext i8 %68 to i32
  %70 = add i32 %.089.i.i.i, %69
  %71 = xor i32 %70, -1
  %72 = shl i32 %70, 15
  %73 = add i32 %72, %71
  %74 = lshr i32 %73, 12
  %75 = xor i32 %74, %73
  %76 = mul i32 %75, 5
  %77 = lshr i32 %76, 4
  %78 = xor i32 %77, %76
  %79 = mul i32 %78, 2057
  %80 = lshr i32 %79, 16
  %81 = xor i32 %80, %79
  %82 = add nuw i64 %.010.i.i.i, 1
  %exitcond.not.i.i.i = icmp eq i64 %82, %7
  br i1 %exitcond.not.i.i.i, label %._crit_edge.loopexit.i.i.i, label %.lr.ph.i.i.i

._crit_edge.loopexit.i.i.i:                       ; preds = %.lr.ph.i.i.i
  %83 = zext i32 %81 to i64
  br label %hash.exit.i.i

hash.exit.i.i:                                    ; preds = %._crit_edge.loopexit.i.i.i, %65
  %.08.lcssa.i.i.i = phi i64 [ 1, %65 ], [ %83, %._crit_edge.loopexit.i.i.i ]
  %84 = add i64 %66, -1
  %85 = load ptr, ptr %0, align 8
  br label %86

86:                                               ; preds = %98, %hash.exit.i.i
  %.023.i.i = phi i64 [ 1, %hash.exit.i.i ], [ %99, %98 ]
  %.08.lcssa.i.pn.i.i = phi i64 [ %.08.lcssa.i.i.i, %hash.exit.i.i ], [ %100, %98 ]
  %.0.i.i = and i64 %.08.lcssa.i.pn.i.i, %84
  %.024.i.i = getelementptr inbounds %struct.cli_element, ptr %85, i64 %.0.i.i
  %87 = load ptr, ptr %.024.i.i, align 8
  %.not31.i.i = icmp eq ptr %87, null
  br i1 %.not31.i.i, label %cli_hashtab_delete.exit, label %88

88:                                               ; preds = %86
  %.not32.i.i = icmp eq ptr %87, @DELETED_KEY
  br i1 %.not32.i.i, label %98, label %89

89:                                               ; preds = %88
  %90 = getelementptr inbounds i8, ptr %.024.i.i, i64 16
  %91 = load i64, ptr %90, align 8
  %92 = icmp eq i64 %91, %7
  br i1 %92, label %93, label %98

93:                                               ; preds = %89
  %94 = icmp eq ptr %87, %1
  br i1 %94, label %cli_hashtab_find.exit.i, label %95

95:                                               ; preds = %93
  %96 = tail call i32 @strncmp(ptr noundef %1, ptr noundef nonnull %87, i64 noundef %7) #19
  %97 = icmp eq i32 %96, 0
  br i1 %97, label %cli_hashtab_find.exit.i, label %98

98:                                               ; preds = %95, %89, %88
  %99 = add i64 %.023.i.i, 1
  %100 = add i64 %.0.i.i, %.023.i.i
  %.not33.i.i = icmp ugt i64 %99, %66
  br i1 %.not33.i.i, label %cli_hashtab_delete.exit, label %86

cli_hashtab_find.exit.i:                          ; preds = %95, %93
  %.lcssa39 = phi ptr [ %87, %95 ], [ %1, %93 ]
  tail call void @free(ptr noundef %.lcssa39) #18
  store ptr @DELETED_KEY, ptr %.024.i.i, align 8
  br label %cli_hashtab_delete.exit

cli_hashtab_delete.exit:                          ; preds = %29, %41, %98, %86, %cli_hashtab_find.exit.i, %cli_hashtab_find.exit, %3
  %.0 = phi i32 [ 3, %3 ], [ 3, %cli_hashtab_find.exit ], [ 0, %cli_hashtab_find.exit.i ], [ 0, %86 ], [ 0, %98 ], [ 10, %41 ], [ 10, %29 ]
  ret i32 %.0
}